target datalayout = "e-m:e-p270:32:32-p271:32:32-p272:64:64-i64:64-i128:128-f80:128-n8:16:32:64-S128"
target triple = "x86_64-pc-linux-gnu"

%struct.expert_field = type { i32, i32 }
%struct.except_id_t = type { i64, i64 }
%struct.except_stacknode = type { ptr, i32, %union.anon.0 }
%union.anon.0 = type { ptr }
%struct.except_catch = type { ptr, i64, %struct.except_t, [1 x %struct.__jmp_buf_tag] }
%struct.except_t = type { %struct.except_id_t, ptr, ptr }
%struct.__jmp_buf_tag = type { [8 x i64], i32, %struct.__sigset_t }
%struct.__sigset_t = type { [16 x i64] }

@hf_ieee802154_mlme = internal global i32 0, align 4
@hf_ieee802154_mlme_ie_unsupported = internal global i32 0, align 4
@hf_ieee802154_mlme_ie_data = internal global i32 0, align 4
@ett_ieee802154_mlme = internal global i32 0, align 4
@ett_ieee802154_mlme_unsupported = internal global i32 0, align 4
@ei_ieee802154_ie_unsupported_id = internal global %struct.expert_field zeroinitializer, align 4
@mlme_ie_dissector_table = internal global ptr null, align 8
@dissect_pie_mlme.catch_spec = internal constant [1 x %struct.except_id_t] [%struct.except_id_t { i64 1, i64 0 }], align 16

; Function Attrs: null_pointer_is_valid sspstrong uwtable
define internal i32 @dissect_pie_mlme(ptr noundef %0, ptr noundef %1, ptr noundef %2, ptr noundef %3) #0 {
  %5 = alloca ptr, align 8
  %6 = alloca ptr, align 8
  %7 = alloca ptr, align 8
  %8 = alloca ptr, align 8
  %9 = alloca ptr, align 8
  %10 = alloca i32, align 4
  %11 = alloca i16, align 2
  %12 = alloca i16, align 2
  %13 = alloca ptr, align 8
  %14 = alloca ptr, align 8
  %15 = alloca i32, align 4
  %16 = alloca %struct.except_stacknode, align 8
  %17 = alloca %struct.except_catch, align 8
  %18 = alloca i32, align 4
  %19 = alloca ptr, align 8
  store ptr %0, ptr %5, align 8
  store ptr %1, ptr %6, align 8
  store ptr %2, ptr %7, align 8
  store ptr %3, ptr %8, align 8
  call void @llvm.lifetime.start.p0(i64 8, ptr %9) #17
  %20 = load ptr, ptr %5, align 8
  %21 = load ptr, ptr %7, align 8
  %22 = load i32, ptr @hf_ieee802154_mlme, align 4
  %23 = load i32, ptr @ett_ieee802154_mlme, align 4
  %24 = call ptr @ieee802154_create_pie_tree(ptr noundef %20, ptr noundef %21, i32 noundef %22, i32 noundef %23)
  store ptr %24, ptr %9, align 8
  call void @llvm.lifetime.start.p0(i64 4, ptr %10) #17
  store volatile i32 2, ptr %10, align 4
  br label %25

25:                                               ; preds = %151, %4
  %26 = load ptr, ptr %5, align 8
  %27 = load volatile i32, ptr %10, align 4
  %28 = call i32 @tvb_reported_length_remaining(ptr noundef %26, i32 noundef %27)
  %29 = icmp sgt i32 %28, 1
  br i1 %29, label %30, label %156

30:                                               ; preds = %25
  call void @llvm.lifetime.start.p0(i64 2, ptr %11) #17
  %31 = load ptr, ptr %5, align 8
  %32 = load volatile i32, ptr %10, align 4
  %33 = call zeroext i16 @tvb_get_letohs(ptr noundef %31, i32 noundef %32)
  store i16 %33, ptr %11, align 2
  call void @llvm.lifetime.start.p0(i64 2, ptr %12) #17
  call void @llvm.lifetime.start.p0(i64 8, ptr %13) #17
  %34 = load i16, ptr %11, align 2
  %35 = zext i16 %34 to i32
  %36 = and i32 %35, 32768
  %37 = icmp ne i32 %36, 0
  br i1 %37, label %38, label %51

38:                                               ; preds = %30
  %39 = load i16, ptr %11, align 2
  %40 = zext i16 %39 to i32
  %41 = and i32 %40, 30720
  %42 = ashr i32 %41, 11
  %43 = trunc i32 %42 to i16
  store volatile i16 %43, ptr %12, align 2
  %44 = load ptr, ptr %5, align 8
  %45 = load volatile i32, ptr %10, align 4
  %46 = load i16, ptr %11, align 2
  %47 = zext i16 %46 to i32
  %48 = and i32 %47, 2047
  %49 = add i32 %48, 2
  %50 = call ptr @tvb_new_subset_length(ptr noundef %44, i32 noundef %45, i32 noundef %49)
  store volatile ptr %50, ptr %13, align 8
  br label %64

51:                                               ; preds = %30
  %52 = load i16, ptr %11, align 2
  %53 = zext i16 %52 to i32
  %54 = and i32 %53, 32512
  %55 = ashr i32 %54, 8
  %56 = trunc i32 %55 to i16
  store volatile i16 %56, ptr %12, align 2
  %57 = load ptr, ptr %5, align 8
  %58 = load volatile i32, ptr %10, align 4
  %59 = load i16, ptr %11, align 2
  %60 = zext i16 %59 to i32
  %61 = and i32 %60, 255
  %62 = add i32 %61, 2
  %63 = call ptr @tvb_new_subset_length(ptr noundef %57, i32 noundef %58, i32 noundef %62)
  store volatile ptr %63, ptr %13, align 8
  br label %64

64:                                               ; preds = %51, %38
  %65 = load volatile ptr, ptr %13, align 8
  %66 = call i32 @tvb_reported_length(ptr noundef %65)
  %67 = load volatile i32, ptr %10, align 4
  %68 = add i32 %67, %66
  store volatile i32 %68, ptr %10, align 4
  call void @llvm.lifetime.start.p0(i64 8, ptr %14) #17
  call void @llvm.lifetime.start.p0(i64 4, ptr %15) #17
  store volatile i32 0, ptr %15, align 4
  call void @llvm.lifetime.start.p0(i64 24, ptr %16) #17
  call void @llvm.lifetime.start.p0(i64 248, ptr %17) #17
  call void @except_setup_try(ptr noundef %16, ptr noundef %17, ptr noundef @dissect_pie_mlme.catch_spec, i64 noundef 1)
  %69 = getelementptr inbounds nuw %struct.except_catch, ptr %17, i32 0, i32 3
  %70 = getelementptr inbounds [1 x %struct.__jmp_buf_tag], ptr %69, i64 0, i64 0
  %71 = call i32 @_setjmp(ptr noundef %70) #19
  %72 = icmp ne i32 %71, 0
  br i1 %72, label %73, label %75

73:                                               ; preds = %64
  %74 = getelementptr inbounds nuw %struct.except_catch, ptr %17, i32 0, i32 2
  store volatile ptr %74, ptr %14, align 8
  br label %76

75:                                               ; preds = %64
  store volatile ptr null, ptr %14, align 8
  br label %76

76:                                               ; preds = %75, %73
  %77 = load volatile i32, ptr %15, align 4
  %78 = and i32 %77, 1
  %79 = icmp ne i32 %78, 0
  br i1 %79, label %80, label %83

80:                                               ; preds = %76
  %81 = load volatile i32, ptr %15, align 4
  %82 = or i32 %81, 2
  store volatile i32 %82, ptr %15, align 4
  br label %83

83:                                               ; preds = %80, %76
  %84 = load volatile i32, ptr %15, align 4
  %85 = and i32 %84, -2
  store volatile i32 %85, ptr %15, align 4
  %86 = load volatile i32, ptr %15, align 4
  %87 = icmp eq i32 %86, 0
  br i1 %87, label %88, label %121

88:                                               ; preds = %83
  %89 = load volatile ptr, ptr %14, align 8
  %90 = icmp eq ptr %89, null
  br i1 %90, label %91, label %121

91:                                               ; preds = %88
  call void @llvm.lifetime.start.p0(i64 4, ptr %18) #17
  %92 = load ptr, ptr @mlme_ie_dissector_table, align 8
  %93 = load volatile i16, ptr %12, align 2
  %94 = zext i16 %93 to i32
  %95 = load volatile ptr, ptr %13, align 8
  %96 = load ptr, ptr %6, align 8
  %97 = load ptr, ptr %9, align 8
  %98 = load ptr, ptr %8, align 8
  %99 = call i32 @dissector_try_uint_with_data(ptr noundef %92, i32 noundef %94, ptr noundef %95, ptr noundef %96, ptr noundef %97, i1 noundef zeroext false, ptr noundef %98)
  store i32 %99, ptr %18, align 4
  %100 = load i32, ptr %18, align 4
  %101 = icmp eq i32 %100, 0
  br i1 %101, label %102, label %120

102:                                              ; preds = %91
  call void @llvm.lifetime.start.p0(i64 8, ptr %19) #17
  %103 = load volatile ptr, ptr %13, align 8
  %104 = load ptr, ptr %9, align 8
  %105 = load i32, ptr @hf_ieee802154_mlme_ie_unsupported, align 4
  %106 = load i32, ptr @ett_ieee802154_mlme_unsupported, align 4
  %107 = call ptr @ieee802154_create_psie_tree(ptr noundef %103, ptr noundef %104, i32 noundef %105, i32 noundef %106)
  store ptr %107, ptr %19, align 8
  %108 = load volatile ptr, ptr %13, align 8
  %109 = call i32 @tvb_reported_length(ptr noundef %108)
  %110 = icmp ugt i32 %109, 2
  br i1 %110, label %111, label %116

111:                                              ; preds = %102
  %112 = load ptr, ptr %19, align 8
  %113 = load i32, ptr @hf_ieee802154_mlme_ie_data, align 4
  %114 = load volatile ptr, ptr %13, align 8
  %115 = call ptr @proto_tree_add_item(ptr noundef %112, i32 noundef %113, ptr noundef %114, i32 noundef 2, i32 noundef -1, i32 noundef 0)
  br label %116

116:                                              ; preds = %111, %102
  %117 = load ptr, ptr %6, align 8
  %118 = load ptr, ptr %19, align 8
  %119 = call ptr @expert_add_info(ptr noundef %117, ptr noundef %118, ptr noundef @ei_ieee802154_ie_unsupported_id)
  call void @llvm.lifetime.end.p0(i64 8, ptr %19) #17
  br label %120

120:                                              ; preds = %116, %91
  call void @llvm.lifetime.end.p0(i64 4, ptr %18) #17
  br label %121

121:                                              ; preds = %120, %88, %83
  %122 = load volatile i32, ptr %15, align 4
  %123 = icmp eq i32 %122, 0
  br i1 %123, label %124, label %142

124:                                              ; preds = %121
  %125 = load volatile ptr, ptr %14, align 8
  %126 = icmp ne ptr %125, null
  br i1 %126, label %127, label %142

127:                                              ; preds = %124
  %128 = load volatile i32, ptr %15, align 4
  %129 = or i32 %128, 1
  store volatile i32 %129, ptr %15, align 4
  %130 = icmp ne i32 %129, 0
  br i1 %130, label %131, label %142

131:                                              ; preds = %127
  %132 = load ptr, ptr %5, align 8
  %133 = load ptr, ptr %6, align 8
  %134 = load ptr, ptr %7, align 8
  %135 = load volatile ptr, ptr %14, align 8
  %136 = getelementptr inbounds nuw %struct.except_t, ptr %135, i32 0, i32 0
  %137 = getelementptr inbounds nuw %struct.except_id_t, ptr %136, i32 0, i32 1
  %138 = load volatile i64, ptr %137, align 8
  %139 = load volatile ptr, ptr %14, align 8
  %140 = getelementptr inbounds nuw %struct.except_t, ptr %139, i32 0, i32 1
  %141 = load volatile ptr, ptr %140, align 8
  call void @show_exception(ptr noundef %132, ptr noundef %133, ptr noundef %134, i64 noundef %138, ptr noundef %141)
  br label %142

142:                                              ; preds = %131, %127, %124, %121
  %143 = load volatile i32, ptr %15, align 4
  %144 = and i32 %143, 1
  %145 = icmp ne i32 %144, 0
  br i1 %145, label %151, label %146

146:                                              ; preds = %142
  %147 = load volatile ptr, ptr %14, align 8
  %148 = icmp ne ptr %147, null
  br i1 %148, label %149, label %151

149:                                              ; preds = %146
  %150 = load volatile ptr, ptr %14, align 8
  call void @except_rethrow(ptr noundef %150) #16
  unreachable

151:                                              ; preds = %146, %142
  %152 = getelementptr inbounds nuw %struct.except_catch, ptr %17, i32 0, i32 2
  %153 = getelementptr inbounds nuw %struct.except_t, ptr %152, i32 0, i32 2
  %154 = load volatile ptr, ptr %153, align 8
  call void @except_free(ptr noundef %154)
  %155 = call ptr @except_pop()
  call void @llvm.lifetime.end.p0(i64 248, ptr %17) #17
  call void @llvm.lifetime.end.p0(i64 24, ptr %16) #17
  call void @llvm.lifetime.end.p0(i64 4, ptr %15) #17
  call void @llvm.lifetime.end.p0(i64 8, ptr %14) #17
  call void @llvm.lifetime.end.p0(i64 8, ptr %13) #17
  call void @llvm.lifetime.end.p0(i64 2, ptr %12) #17
  call void @llvm.lifetime.end.p0(i64 2, ptr %11) #17
  br label %25, !llvm.loop !24

156:                                              ; preds = %25
  %157 = load volatile i32, ptr %10, align 4
  call void @llvm.lifetime.end.p0(i64 4, ptr %10) #17
  call void @llvm.lifetime.end.p0(i64 8, ptr %9) #17
  ret i32 %157
}