; Function Attrs: null_pointer_is_valid sspstrong uwtable
define internal i32 @dissect_pie_mlme(ptr noundef %0, ptr noundef %1, ptr noundef %2, ptr noundef %3) #0 {
  %5 = alloca i32, align 4
  %6 = alloca i16, align 2
  %7 = alloca ptr, align 8
  %8 = alloca ptr, align 8
  %9 = alloca i32, align 4
  %10 = alloca %struct.except_stacknode, align 8
  %11 = alloca %struct.except_catch, align 8
  %12 = load i32, ptr @hf_ieee802154_mlme, align 4
  %13 = load i32, ptr @ett_ieee802154_mlme, align 4
  %14 = call ptr @ieee802154_create_pie_tree(ptr noundef %0, ptr noundef %2, i32 noundef %12, i32 noundef %13)
  call void @llvm.lifetime.start.p0(i64 4, ptr nonnull %5)
  store volatile i32 2, ptr %5, align 4
  %.0..0..0..0.2651 = load volatile i32, ptr %5, align 4
  %15 = call i32 @tvb_reported_length_remaining(ptr noundef %0, i32 noundef %.0..0..0..0.2651)
  %16 = icmp sgt i32 %15, 1
  br i1 %16, label %.lr.ph, label %._crit_edge

.lr.ph:                                           ; preds = %4
  %17 = getelementptr inbounds nuw i8, ptr %11, i64 48
  %18 = getelementptr inbounds nuw i8, ptr %11, i64 16
  %19 = getelementptr inbounds nuw i8, ptr %11, i64 40
  br label %20

20:                                               ; preds = %.lr.ph, %69
  %.0..0..0..0.27 = load volatile i32, ptr %5, align 4
  %21 = call zeroext i16 @tvb_get_letohs(ptr noundef %0, i32 noundef %.0..0..0..0.27)
  call void @llvm.lifetime.start.p0(i64 2, ptr nonnull %6)
  call void @llvm.lifetime.start.p0(i64 8, ptr nonnull %7)
  %22 = zext i16 %21 to i32
  %.not = icmp sgt i16 %21, -1
  %23 = lshr i16 %21, 8
  %24 = lshr i16 %21, 11
  %25 = and i16 %24, 15
  %.sink = select i1 %.not, i16 %23, i16 %25
  %.sink53 = select i1 %.not, i32 255, i32 2047
  store volatile i16 %.sink, ptr %6, align 2
  %.0..0..0..0.29 = load volatile i32, ptr %5, align 4
  %26 = and i32 %.sink53, %22
  %27 = add nuw nsw i32 %26, 2
  %28 = call ptr @tvb_new_subset_length(ptr noundef %0, i32 noundef %.0..0..0..0.29, i32 noundef %27)
  store volatile ptr %28, ptr %7, align 8
  %.0..0..0..0.15 = load volatile ptr, ptr %7, align 8
  %29 = call i32 @tvb_reported_length(ptr noundef %.0..0..0..0.15)
  %.0..0..0..0.30 = load volatile i32, ptr %5, align 4
  %30 = add i32 %.0..0..0..0.30, %29
  store volatile i32 %30, ptr %5, align 4
  call void @llvm.lifetime.start.p0(i64 8, ptr nonnull %8)
  call void @llvm.lifetime.start.p0(i64 4, ptr nonnull %9)
  store volatile i32 0, ptr %9, align 4
  call void @llvm.lifetime.start.p0(i64 24, ptr nonnull %10) #19
  call void @llvm.lifetime.start.p0(i64 248, ptr nonnull %11) #19
  call void @except_setup_try(ptr noundef nonnull %10, ptr noundef nonnull %11, ptr noundef nonnull @dissect_pie_mlme.catch_spec, i64 noundef 1)
  %31 = call i32 @_setjmp(ptr noundef nonnull %17) #21
  %.not46 = icmp eq i32 %31, 0
  %.sink54 = select i1 %.not46, ptr null, ptr %18
  store volatile ptr %.sink54, ptr %8, align 8
  %.0..0..0..0.2 = load volatile i32, ptr %9, align 4
  %32 = and i32 %.0..0..0..0.2, 1
  %.not47 = icmp eq i32 %32, 0
  br i1 %.not47, label %35, label %33

33:                                               ; preds = %20
  %.0..0..0..0.3 = load volatile i32, ptr %9, align 4
  %34 = or i32 %.0..0..0..0.3, 2
  store volatile i32 %34, ptr %9, align 4
  br label %35

35:                                               ; preds = %33, %20
  %.0..0..0..0.4 = load volatile i32, ptr %9, align 4
  %36 = and i32 %.0..0..0..0.4, -2
  store volatile i32 %36, ptr %9, align 4
  %.0..0..0..0.5 = load volatile i32, ptr %9, align 4
  %37 = icmp eq i32 %.0..0..0..0.5, 0
  br i1 %37, label %38, label %56

38:                                               ; preds = %35
  %.0..0..0..0.9 = load volatile ptr, ptr %8, align 8
  %39 = icmp eq ptr %.0..0..0..0.9, null
  br i1 %39, label %40, label %56

40:                                               ; preds = %38
  %41 = load ptr, ptr @mlme_ie_dissector_table, align 8
  %.0..0..0..0.20 = load volatile i16, ptr %6, align 2
  %42 = zext i16 %.0..0..0..0.20 to i32
  %.0..0..0..0.16 = load volatile ptr, ptr %7, align 8
  %43 = call i32 @dissector_try_uint_with_data(ptr noundef %41, i32 noundef %42, ptr noundef %.0..0..0..0.16, ptr noundef %1, ptr noundef %14, i1 noundef zeroext false, ptr noundef %3)
  %44 = icmp eq i32 %43, 0
  br i1 %44, label %45, label %56

45:                                               ; preds = %40
  %.0..0..0..0.17 = load volatile ptr, ptr %7, align 8
  %46 = load i32, ptr @hf_ieee802154_mlme_ie_unsupported, align 4
  %47 = load i32, ptr @ett_ieee802154_mlme_unsupported, align 4
  %48 = call fastcc ptr @ieee802154_create_psie_tree(ptr noundef %.0..0..0..0.17, ptr noundef %14, i32 noundef %46, i32 noundef %47)
  %.0..0..0..0.18 = load volatile ptr, ptr %7, align 8
  %49 = call i32 @tvb_reported_length(ptr noundef %.0..0..0..0.18)
  %50 = icmp ugt i32 %49, 2
  br i1 %50, label %51, label %54

51:                                               ; preds = %45
  %52 = load i32, ptr @hf_ieee802154_mlme_ie_data, align 4
  %.0..0..0..0.19 = load volatile ptr, ptr %7, align 8
  %53 = call ptr @proto_tree_add_item(ptr noundef %48, i32 noundef %52, ptr noundef %.0..0..0..0.19, i32 noundef 2, i32 noundef -1, i32 noundef 0)
  br label %54

54:                                               ; preds = %51, %45
  %55 = call ptr @expert_add_info(ptr noundef %1, ptr noundef %48, ptr noundef nonnull @ei_ieee802154_ie_unsupported_id)
  br label %56

56:                                               ; preds = %40, %54, %38, %35
  %.0..0..0..0.6 = load volatile i32, ptr %9, align 4
  %57 = icmp eq i32 %.0..0..0..0.6, 0
  br i1 %57, label %58, label %65

58:                                               ; preds = %56
  %.0..0..0..0.10 = load volatile ptr, ptr %8, align 8
  %.not48 = icmp eq ptr %.0..0..0..0.10, null
  br i1 %.not48, label %65, label %59

59:                                               ; preds = %58
  %.0..0..0..0.7 = load volatile i32, ptr %9, align 4
  %60 = or i32 %.0..0..0..0.7, 1
  store volatile i32 %60, ptr %9, align 4
  %.0..0..0..0.11 = load volatile ptr, ptr %8, align 8
  %61 = getelementptr inbounds nuw i8, ptr %.0..0..0..0.11, i64 8
  %62 = load volatile i64, ptr %61, align 8
  %.0..0..0..0.12 = load volatile ptr, ptr %8, align 8
  %63 = getelementptr inbounds nuw i8, ptr %.0..0..0..0.12, i64 16
  %64 = load volatile ptr, ptr %63, align 8
  call void @show_exception(ptr noundef %0, ptr noundef %1, ptr noundef %2, i64 noundef %62, ptr noundef %64)
  br label %65

65:                                               ; preds = %59, %58, %56
  %.0..0..0..0.8 = load volatile i32, ptr %9, align 4
  %66 = and i32 %.0..0..0..0.8, 1
  %.not49 = icmp eq i32 %66, 0
  br i1 %.not49, label %67, label %69

67:                                               ; preds = %65
  %.0..0..0..0.13 = load volatile ptr, ptr %8, align 8
  %.not50 = icmp eq ptr %.0..0..0..0.13, null
  br i1 %.not50, label %69, label %68

68:                                               ; preds = %67
  %.0..0..0..0.14 = load volatile ptr, ptr %8, align 8
  call void @except_rethrow(ptr noundef %.0..0..0..0.14) #18
  unreachable

69:                                               ; preds = %67, %65
  %70 = load volatile ptr, ptr %19, align 8
  call void @except_free(ptr noundef %70)
  %71 = call ptr @except_pop()
  call void @llvm.lifetime.end.p0(i64 248, ptr nonnull %11) #19
  call void @llvm.lifetime.end.p0(i64 24, ptr nonnull %10) #19
  call void @llvm.lifetime.end.p0(i64 4, ptr nonnull %9)
  call void @llvm.lifetime.end.p0(i64 8, ptr nonnull %8)
  call void @llvm.lifetime.end.p0(i64 8, ptr nonnull %7)
  call void @llvm.lifetime.end.p0(i64 2, ptr nonnull %6)
  %.0..0..0..0.26 = load volatile i32, ptr %5, align 4
  %72 = call i32 @tvb_reported_length_remaining(ptr noundef %0, i32 noundef %.0..0..0..0.26)
  %73 = icmp sgt i32 %72, 1
  br i1 %73, label %20, label %._crit_edge, !llvm.loop !32

._crit_edge:                                      ; preds = %69, %4
  %.0..0..0..0.31 = load volatile i32, ptr %5, align 4
  call void @llvm.lifetime.end.p0(i64 4, ptr nonnull %5)
  ret i32 %.0..0..0..0.31
}